target datalayout = "e-m:e-p270:32:32-p271:32:32-p272:64:64-i64:64-i128:128-f80:128-n8:16:32:64-S128"
target triple = "x86_64-pc-linux-gnu"

@.str.2 = private unnamed_addr constant [19 x i8] c"IrDA:IrLMP:LsapSel\00", align 1
@ircomm_raw_handle = internal global ptr null, align 8

; Function Attrs: null_pointer_is_valid sspstrong uwtable
define internal zeroext i1 @dissect_ircomm_lmp_lsap(ptr noundef %0, i32 noundef %1, ptr noundef %2, ptr noundef %3, i32 noundef %4, i8 noundef zeroext %5, i8 noundef zeroext %6) #0 {
  %8 = alloca i1, align 1
  %9 = alloca ptr, align 8
  %10 = alloca i32, align 4
  %11 = alloca ptr, align 8
  %12 = alloca ptr, align 8
  %13 = alloca i32, align 4
  %14 = alloca i8, align 1
  %15 = alloca i8, align 1
  %16 = alloca i8, align 1
  %17 = alloca i32, align 4
  store ptr %0, ptr %9, align 8
  store i32 %1, ptr %10, align 4
  store ptr %2, ptr %11, align 8
  store ptr %3, ptr %12, align 8
  store i32 %4, ptr %13, align 4
  store i8 %5, ptr %14, align 1
  store i8 %6, ptr %15, align 1
  call void @llvm.lifetime.start.p0(i64 1, ptr %16) #4
  %18 = load ptr, ptr %9, align 8
  %19 = load ptr, ptr %12, align 8
  %20 = load i32, ptr %10, align 4
  %21 = load i8, ptr %14, align 1
  %22 = call zeroext i8 @check_iap_lsap_result(ptr noundef %18, ptr noundef %19, i32 noundef %20, ptr noundef @.str.2, i8 noundef zeroext %21)
  store i8 %22, ptr %16, align 1
  %23 = zext i8 %22 to i32
  %24 = icmp eq i32 %23, 0
  br i1 %24, label %25, label %26

25:                                               ; preds = %7
  store i1 false, ptr %8, align 1
  store i32 1, ptr %17, align 4
  br label %31

26:                                               ; preds = %7
  %27 = load ptr, ptr %11, align 8
  %28 = load i8, ptr %16, align 1
  %29 = load ptr, ptr @ircomm_raw_handle, align 8
  %30 = load i8, ptr %15, align 1
  call void @add_lmp_conversation(ptr noundef %27, i8 noundef zeroext %28, i1 noundef zeroext false, ptr noundef %29, i8 noundef zeroext %30)
  store i1 false, ptr %8, align 1
  store i32 1, ptr %17, align 4
  br label %31

31:                                               ; preds = %26, %25
  call void @llvm.lifetime.end.p0(i64 1, ptr %16) #4
  %32 = load i1, ptr %8, align 1
  ret i1 %32
}