; Function Attrs: null_pointer_is_valid sspstrong uwtable
define internal noundef zeroext i1 @dissect_ircomm_lmp_lsap(ptr noundef %0, i32 noundef %1, ptr noundef %2, ptr noundef %3, i32 %4, i8 noundef zeroext %5, i8 noundef zeroext %6) #0 {
  %8 = tail call zeroext i8 @check_iap_lsap_result(ptr noundef %0, ptr noundef %3, i32 noundef %1, ptr noundef nonnull @.str.2, i8 noundef zeroext %5)
  %9 = icmp eq i8 %8, 0
  br i1 %9, label %12, label %10

10:                                               ; preds = %7
  %11 = load ptr, ptr @ircomm_raw_handle, align 8
  tail call void @add_lmp_conversation(ptr noundef %2, i8 noundef zeroext %8, i1 noundef zeroext false, ptr noundef %11, i8 noundef zeroext %6)
  br label %12

12:                                               ; preds = %7, %10
  ret i1 false
}